; Function Attrs: mustprogress nounwind uwtable
define hidden void @_ZN6Assimp11PLYImporterD0Ev(ptr noundef nonnull align 8 dereferenceable(96) initializes((0, 8)) %0) unnamed_addr #0 align 2 personality ptr @__gxx_personality_v0 {
  %2 = getelementptr inbounds nuw i8, ptr %0, i64 88
  %3 = load ptr, ptr %2, align 8
  %4 = icmp eq ptr %3, null
  br i1 %4, label %6, label %5

5:                                                ; preds = %1
  tail call void @_ZN6aiMeshD2Ev(ptr noundef nonnull align 8 dereferenceable(1320) %3) #20
  tail call void @_ZdlPvm(ptr noundef nonnull %3, i64 noundef 1320) #21
  br label %6

6:                                                ; preds = %5, %1
  store ptr getelementptr inbounds nuw inrange(-16, 48) (i8, ptr @_ZTVN6Assimp12BaseImporterE, i64 16), ptr %0, align 8
  %7 = getelementptr inbounds nuw i8, ptr %0, i64 56
  %8 = load ptr, ptr %7, align 8
  %.not.i.i.i = icmp eq ptr %8, null
  br i1 %.not.i.i.i, label %_ZNSt15__exception_ptr13exception_ptrD2Ev.exit.i.i, label %9

9:                                                ; preds = %6
  tail call void @_ZNSt15__exception_ptr13exception_ptr10_M_releaseEv(ptr noundef nonnull align 8 dereferenceable(8) %7) #20
  br label %_ZNSt15__exception_ptr13exception_ptrD2Ev.exit.i.i

_ZNSt15__exception_ptr13exception_ptrD2Ev.exit.i.i: ; preds = %9, %6
  %10 = getelementptr inbounds nuw i8, ptr %0, i64 24
  %11 = load ptr, ptr %10, align 8
  %12 = getelementptr inbounds nuw i8, ptr %0, i64 40
  %13 = icmp eq ptr %11, %12
  br i1 %13, label %_ZNKSt7__cxx1112basic_stringIcSt11char_traitsIcESaIcEE11_M_is_localEv.exit.thread.i.i.i.i, label %_ZNKSt7__cxx1112basic_stringIcSt11char_traitsIcESaIcEE11_M_is_localEv.exit.i.i.i.i

_ZNKSt7__cxx1112basic_stringIcSt11char_traitsIcESaIcEE11_M_is_localEv.exit.thread.i.i.i.i: ; preds = %_ZNSt15__exception_ptr13exception_ptrD2Ev.exit.i.i
  %14 = getelementptr inbounds nuw i8, ptr %0, i64 32
  %15 = load i64, ptr %14, align 8
  %16 = icmp ult i64 %15, 16
  tail call void @llvm.assume(i1 %16)
  br label %_ZN6Assimp11PLYImporterD2Ev.exit

_ZNKSt7__cxx1112basic_stringIcSt11char_traitsIcESaIcEE11_M_is_localEv.exit.i.i.i.i: ; preds = %_ZNSt15__exception_ptr13exception_ptrD2Ev.exit.i.i
  %17 = load i64, ptr %12, align 8
  %18 = add i64 %17, 1
  tail call void @_ZdlPvm(ptr noundef %11, i64 noundef %18) #21
  br label %_ZN6Assimp11PLYImporterD2Ev.exit

_ZN6Assimp11PLYImporterD2Ev.exit:                 ; preds = %_ZNKSt7__cxx1112basic_stringIcSt11char_traitsIcESaIcEE11_M_is_localEv.exit.thread.i.i.i.i, %_ZNKSt7__cxx1112basic_stringIcSt11char_traitsIcESaIcEE11_M_is_localEv.exit.i.i.i.i
  tail call void @_ZdlPvm(ptr noundef nonnull %0, i64 noundef 96) #21
  ret void
}